; ModuleID = '14/1449.c'
source_filename = "14/1449.c"
target datalayout = "e-m:e-p270:32:32-p271:32:32-p272:64:64-i64:64-f80:128-n8:16:32:64-S128"
target triple = "x86_64-pc-linux-gnu"

@.str = private unnamed_addr constant [3 x i8] c"%d\00", align 1
@.str.1 = private unnamed_addr constant [7 x i8] c"%d%d%d\00", align 1
@.str.2 = private unnamed_addr constant [18 x i8] c"%d %d\0A%d %d\0A%d %d\00", align 1

; Function Attrs: noinline nounwind uwtable
define dso_local i32 @main() #0 {
  %1 = alloca i32, align 4
  %2 = alloca [99999 x i32], align 16
  %3 = alloca [99999 x i32], align 16
  %4 = alloca [99999 x i32], align 16
  %5 = alloca [99999 x i32], align 16
  %6 = alloca i32, align 4
  %7 = alloca i32, align 4
  %8 = alloca i32, align 4
  %9 = alloca i32, align 4
  store i32 0, i32* %1, align 4
  %10 = call i32 (i8*, ...) @__isoc99_scanf(i8* getelementptr inbounds ([3 x i8], [3 x i8]* @.str, i64 0, i64 0), i32* %7)
  store i32 0, i32* %6, align 4
  br label %11

11:                                               ; preds = %38, %0
  %12 = load i32, i32* %6, align 4
  %13 = load i32, i32* %7, align 4
  %14 = icmp slt i32 %12, %13
  br i1 %14, label %15, label %41

15:                                               ; preds = %11
  %16 = load i32, i32* %6, align 4
  %17 = sext i32 %16 to i64
  %18 = getelementptr inbounds [99999 x i32], [99999 x i32]* %2, i64 0, i64 %17
  %19 = load i32, i32* %6, align 4
  %20 = sext i32 %19 to i64
  %21 = getelementptr inbounds [99999 x i32], [99999 x i32]* %3, i64 0, i64 %20
  %22 = load i32, i32* %6, align 4
  %23 = sext i32 %22 to i64
  %24 = getelementptr inbounds [99999 x i32], [99999 x i32]* %4, i64 0, i64 %23
  %25 = call i32 (i8*, ...) @__isoc99_scanf(i8* getelementptr inbounds ([7 x i8], [7 x i8]* @.str.1, i64 0, i64 0), i32* %18, i32* %21, i32* %24)
  %26 = load i32, i32* %6, align 4
  %27 = sext i32 %26 to i64
  %28 = getelementptr inbounds [99999 x i32], [99999 x i32]* %4, i64 0, i64 %27
  %29 = load i32, i32* %28, align 4
  %30 = load i32, i32* %6, align 4
  %31 = sext i32 %30 to i64
  %32 = getelementptr inbounds [99999 x i32], [99999 x i32]* %3, i64 0, i64 %31
  %33 = load i32, i32* %32, align 4
  %34 = add nsw i32 %29, %33
  %35 = load i32, i32* %6, align 4
  %36 = sext i32 %35 to i64
  %37 = getelementptr inbounds [99999 x i32], [99999 x i32]* %5, i64 0, i64 %36
  store i32 %34, i32* %37, align 4
  br label %38

38:                                               ; preds = %15
  %39 = load i32, i32* %6, align 4
  %40 = add nsw i32 %39, 1
  store i32 %40, i32* %6, align 4
  br label %11

41:                                               ; preds = %11
  store i32 0, i32* %6, align 4
  br label %42

42:                                               ; preds = %93, %41
  %43 = load i32, i32* %6, align 4
  %44 = load i32, i32* %7, align 4
  %45 = icmp slt i32 %43, %44
  br i1 %45, label %46, label %96

46:                                               ; preds = %42
  %47 = load i32, i32* %6, align 4
  %48 = sext i32 %47 to i64
  %49 = getelementptr inbounds [99999 x i32], [99999 x i32]* %5, i64 0, i64 %48
  %50 = load i32, i32* %49, align 4
  %51 = load i32, i32* %6, align 4
  %52 = add nsw i32 %51, 1
  %53 = sext i32 %52 to i64
  %54 = getelementptr inbounds [99999 x i32], [99999 x i32]* %5, i64 0, i64 %53
  %55 = load i32, i32* %54, align 4
  %56 = icmp sge i32 %50, %55
  br i1 %56, label %57, label %92

57:                                               ; preds = %46
  %58 = load i32, i32* %6, align 4
  %59 = sext i32 %58 to i64
  %60 = getelementptr inbounds [99999 x i32], [99999 x i32]* %5, i64 0, i64 %59
  %61 = load i32, i32* %60, align 4
  store i32 %61, i32* %8, align 4
  %62 = load i32, i32* %6, align 4
  %63 = add nsw i32 %62, 1
  %64 = sext i32 %63 to i64
  %65 = getelementptr inbounds [99999 x i32], [99999 x i32]* %5, i64 0, i64 %64
  %66 = load i32, i32* %65, align 4
  %67 = load i32, i32* %6, align 4
  %68 = sext i32 %67 to i64
  %69 = getelementptr inbounds [99999 x i32], [99999 x i32]* %5, i64 0, i64 %68
  store i32 %66, i32* %69, align 4
  %70 = load i32, i32* %8, align 4
  %71 = load i32, i32* %6, align 4
  %72 = add nsw i32 %71, 1
  %73 = sext i32 %72 to i64
  %74 = getelementptr inbounds [99999 x i32], [99999 x i32]* %5, i64 0, i64 %73
  store i32 %70, i32* %74, align 4
  %75 = load i32, i32* %6, align 4
  %76 = sext i32 %75 to i64
  %77 = getelementptr inbounds [99999 x i32], [99999 x i32]* %2, i64 0, i64 %76
  %78 = load i32, i32* %77, align 4
  store i32 %78, i32* %9, align 4
  %79 = load i32, i32* %6, align 4
  %80 = add nsw i32 %79, 1
  %81 = sext i32 %80 to i64
  %82 = getelementptr inbounds [99999 x i32], [99999 x i32]* %2, i64 0, i64 %81
  %83 = load i32, i32* %82, align 4
  %84 = load i32, i32* %6, align 4
  %85 = sext i32 %84 to i64
  %86 = getelementptr inbounds [99999 x i32], [99999 x i32]* %2, i64 0, i64 %85
  store i32 %83, i32* %86, align 4
  %87 = load i32, i32* %9, align 4
  %88 = load i32, i32* %6, align 4
  %89 = add nsw i32 %88, 1
  %90 = sext i32 %89 to i64
  %91 = getelementptr inbounds [99999 x i32], [99999 x i32]* %2, i64 0, i64 %90
  store i32 %87, i32* %91, align 4
  br label %92

92:                                               ; preds = %57, %46
  br label %93

93:                                               ; preds = %92
  %94 = load i32, i32* %6, align 4
  %95 = add nsw i32 %94, 1
  store i32 %95, i32* %6, align 4
  br label %42

96:                                               ; preds = %42
  store i32 0, i32* %6, align 4
  br label %97

97:                                               ; preds = %149, %96
  %98 = load i32, i32* %6, align 4
  %99 = load i32, i32* %7, align 4
  %100 = sub nsw i32 %99, 1
  %101 = icmp slt i32 %98, %100
  br i1 %101, label %102, label %152

102:                                              ; preds = %97
  %103 = load i32, i32* %6, align 4
  %104 = sext i32 %103 to i64
  %105 = getelementptr inbounds [99999 x i32], [99999 x i32]* %5, i64 0, i64 %104
  %106 = load i32, i32* %105, align 4
  %107 = load i32, i32* %6, align 4
  %108 = add nsw i32 %107, 1
  %109 = sext i32 %108 to i64
  %110 = getelementptr inbounds [99999 x i32], [99999 x i32]* %5, i64 0, i64 %109
  %111 = load i32, i32* %110, align 4
  %112 = icmp sge i32 %106, %111
  br i1 %112, label %113, label %148

113:                                              ; preds = %102
  %114 = load i32, i32* %6, align 4
  %115 = sext i32 %114 to i64
  %116 = getelementptr inbounds [99999 x i32], [99999 x i32]* %5, i64 0, i64 %115
  %117 = load i32, i32* %116, align 4
  store i32 %117, i32* %8, align 4
  %118 = load i32, i32* %6, align 4
  %119 = add nsw i32 %118, 1
  %120 = sext i32 %119 to i64
  %121 = getelementptr inbounds [99999 x i32], [99999 x i32]* %5, i64 0, i64 %120
  %122 = load i32, i32* %121, align 4
  %123 = load i32, i32* %6, align 4
  %124 = sext i32 %123 to i64
  %125 = getelementptr inbounds [99999 x i32], [99999 x i32]* %5, i64 0, i64 %124
  store i32 %122, i32* %125, align 4
  %126 = load i32, i32* %8, align 4
  %127 = load i32, i32* %6, align 4
  %128 = add nsw i32 %127, 1
  %129 = sext i32 %128 to i64
  %130 = getelementptr inbounds [99999 x i32], [99999 x i32]* %5, i64 0, i64 %129
  store i32 %126, i32* %130, align 4
  %131 = load i32, i32* %6, align 4
  %132 = sext i32 %131 to i64
  %133 = getelementptr inbounds [99999 x i32], [99999 x i32]* %2, i64 0, i64 %132
  %134 = load i32, i32* %133, align 4
  store i32 %134, i32* %9, align 4
  %135 = load i32, i32* %6, align 4
  %136 = add nsw i32 %135, 1
  %137 = sext i32 %136 to i64
  %138 = getelementptr inbounds [99999 x i32], [99999 x i32]* %2, i64 0, i64 %137
  %139 = load i32, i32* %138, align 4
  %140 = load i32, i32* %6, align 4
  %141 = sext i32 %140 to i64
  %142 = getelementptr inbounds [99999 x i32], [99999 x i32]* %2, i64 0, i64 %141
  store i32 %139, i32* %142, align 4
  %143 = load i32, i32* %9, align 4
  %144 = load i32, i32* %6, align 4
  %145 = add nsw i32 %144, 1
  %146 = sext i32 %145 to i64
  %147 = getelementptr inbounds [99999 x i32], [99999 x i32]* %2, i64 0, i64 %146
  store i32 %143, i32* %147, align 4
  br label %148

148:                                              ; preds = %113, %102
  br label %149

149:                                              ; preds = %148
  %150 = load i32, i32* %6, align 4
  %151 = add nsw i32 %150, 1
  store i32 %151, i32* %6, align 4
  br label %97

152:                                              ; preds = %97
  store i32 0, i32* %6, align 4
  br label %153

153:                                              ; preds = %205, %152
  %154 = load i32, i32* %6, align 4
  %155 = load i32, i32* %7, align 4
  %156 = sub nsw i32 %155, 2
  %157 = icmp slt i32 %154, %156
  br i1 %157, label %158, label %208

158:                                              ; preds = %153
  %159 = load i32, i32* %6, align 4
  %160 = sext i32 %159 to i64
  %161 = getelementptr inbounds [99999 x i32], [99999 x i32]* %5, i64 0, i64 %160
  %162 = load i32, i32* %161, align 4
  %163 = load i32, i32* %6, align 4
  %164 = add nsw i32 %163, 1
  %165 = sext i32 %164 to i64
  %166 = getelementptr inbounds [99999 x i32], [99999 x i32]* %5, i64 0, i64 %165
  %167 = load i32, i32* %166, align 4
  %168 = icmp sge i32 %162, %167
  br i1 %168, label %169, label %204

169:                                              ; preds = %158
  %170 = load i32, i32* %6, align 4
  %171 = sext i32 %170 to i64
  %172 = getelementptr inbounds [99999 x i32], [99999 x i32]* %5, i64 0, i64 %171
  %173 = load i32, i32* %172, align 4
  store i32 %173, i32* %8, align 4
  %174 = load i32, i32* %6, align 4
  %175 = add nsw i32 %174, 1
  %176 = sext i32 %175 to i64
  %177 = getelementptr inbounds [99999 x i32], [99999 x i32]* %5, i64 0, i64 %176
  %178 = load i32, i32* %177, align 4
  %179 = load i32, i32* %6, align 4
  %180 = sext i32 %179 to i64
  %181 = getelementptr inbounds [99999 x i32], [99999 x i32]* %5, i64 0, i64 %180
  store i32 %178, i32* %181, align 4
  %182 = load i32, i32* %8, align 4
  %183 = load i32, i32* %6, align 4
  %184 = add nsw i32 %183, 1
  %185 = sext i32 %184 to i64
  %186 = getelementptr inbounds [99999 x i32], [99999 x i32]* %5, i64 0, i64 %185
  store i32 %182, i32* %186, align 4
  %187 = load i32, i32* %6, align 4
  %188 = sext i32 %187 to i64
  %189 = getelementptr inbounds [99999 x i32], [99999 x i32]* %2, i64 0, i64 %188
  %190 = load i32, i32* %189, align 4
  store i32 %190, i32* %9, align 4
  %191 = load i32, i32* %6, align 4
  %192 = add nsw i32 %191, 1
  %193 = sext i32 %192 to i64
  %194 = getelementptr inbounds [99999 x i32], [99999 x i32]* %2, i64 0, i64 %193
  %195 = load i32, i32* %194, align 4
  %196 = load i32, i32* %6, align 4
  %197 = sext i32 %196 to i64
  %198 = getelementptr inbounds [99999 x i32], [99999 x i32]* %2, i64 0, i64 %197
  store i32 %195, i32* %198, align 4
  %199 = load i32, i32* %9, align 4
  %200 = load i32, i32* %6, align 4
  %201 = add nsw i32 %200, 1
  %202 = sext i32 %201 to i64
  %203 = getelementptr inbounds [99999 x i32], [99999 x i32]* %2, i64 0, i64 %202
  store i32 %199, i32* %203, align 4
  br label %204

204:                                              ; preds = %169, %158
  br label %205

205:                                              ; preds = %204
  %206 = load i32, i32* %6, align 4
  %207 = add nsw i32 %206, 1
  store i32 %207, i32* %6, align 4
  br label %153

208:                                              ; preds = %153
  %209 = load i32, i32* %7, align 4
  %210 = sext i32 %209 to i64
  %211 = getelementptr inbounds [99999 x i32], [99999 x i32]* %2, i64 0, i64 %210
  %212 = load i32, i32* %211, align 4
  %213 = load i32, i32* %7, align 4
  %214 = sext i32 %213 to i64
  %215 = getelementptr inbounds [99999 x i32], [99999 x i32]* %5, i64 0, i64 %214
  %216 = load i32, i32* %215, align 4
  %217 = load i32, i32* %7, align 4
  %218 = sub nsw i32 %217, 1
  %219 = sext i32 %218 to i64
  %220 = getelementptr inbounds [99999 x i32], [99999 x i32]* %2, i64 0, i64 %219
  %221 = load i32, i32* %220, align 4
  %222 = load i32, i32* %7, align 4
  %223 = sub nsw i32 %222, 1
  %224 = sext i32 %223 to i64
  %225 = getelementptr inbounds [99999 x i32], [99999 x i32]* %5, i64 0, i64 %224
  %226 = load i32, i32* %225, align 4
  %227 = load i32, i32* %7, align 4
  %228 = sub nsw i32 %227, 2
  %229 = sext i32 %228 to i64
  %230 = getelementptr inbounds [99999 x i32], [99999 x i32]* %2, i64 0, i64 %229
  %231 = load i32, i32* %230, align 4
  %232 = load i32, i32* %7, align 4
  %233 = sub nsw i32 %232, 2
  %234 = sext i32 %233 to i64
  %235 = getelementptr inbounds [99999 x i32], [99999 x i32]* %5, i64 0, i64 %234
  %236 = load i32, i32* %235, align 4
  %237 = call i32 (i8*, ...) @printf(i8* getelementptr inbounds ([18 x i8], [18 x i8]* @.str.2, i64 0, i64 0), i32 %212, i32 %216, i32 %221, i32 %226, i32 %231, i32 %236)
  ret i32 0
}

declare dso_local i32 @__isoc99_scanf(i8*, ...) #1

declare dso_local i32 @printf(i8*, ...) #1


!llvm.module.flags = !{!0}
!llvm.ident = !{!1}

!0 = !{i32 1, !"wchar_size", i32 4}
!1 = !{!"clang version 10.0.0-4ubuntu1 "}
